; ModuleID = 'source-C-CXX/53/375.c'
source_filename = "source-C-CXX/53/375.c"
target datalayout = "e-m:e-p270:32:32-p271:32:32-p272:64:64-i64:64-f80:128-n8:16:32:64-S128"
target triple = "x86_64-pc-linux-gnu"

@.str = private unnamed_addr constant [5 x i8] c"%d%d\00", align 1
@.str.2 = private unnamed_addr constant [3 x i8] c"%d\00", align 1

; Function Attrs: nofree nounwind sspstrong uwtable
define dso_local void @main() local_unnamed_addr #0 {
  %1 = alloca i32, align 4
  %2 = alloca i32, align 4
  %3 = bitcast i32* %1 to i8*
  call void @llvm.lifetime.start.p0i8(i64 4, i8* nonnull %3) #4
  %4 = bitcast i32* %2 to i8*
  call void @llvm.lifetime.start.p0i8(i64 4, i8* nonnull %4) #4
  %5 = call i32 (i8*, ...) @__isoc99_scanf(i8* getelementptr inbounds ([5 x i8], [5 x i8]* @.str, i64 0, i64 0), i32* nonnull %1, i32* nonnull %2)
  %6 = call i32 @putchar(i32 10)
  %7 = load i32, i32* %1, align 4, !tbaa !5
  %8 = load i32, i32* %2, align 4
  %9 = add nsw i32 %7, -1
  %10 = icmp slt i32 %7, 1
  br i1 %10, label %31, label %11

11:                                               ; preds = %0
  %12 = add nuw i32 %7, 1
  br label %13

13:                                               ; preds = %11, %26
  %14 = phi i32 [ %29, %26 ], [ 1, %11 ]
  br label %15

15:                                               ; preds = %13, %23
  %16 = phi i32 [ %14, %13 ], [ %21, %23 ]
  %17 = phi i32 [ 1, %13 ], [ %24, %23 ]
  %18 = mul nsw i32 %7, %16
  %19 = add nsw i32 %8, %18
  %20 = srem i32 %19, %9
  %21 = sdiv i32 %19, %9
  %22 = icmp eq i32 %20, 0
  br i1 %22, label %23, label %26

23:                                               ; preds = %15
  %24 = add nuw i32 %17, 1
  %25 = icmp eq i32 %17, %7
  br i1 %25, label %26, label %15, !llvm.loop !9

26:                                               ; preds = %23, %15
  %27 = phi i32 [ %17, %15 ], [ %12, %23 ]
  %28 = phi i32 [ %19, %15 ], [ %21, %23 ]
  %29 = add nuw nsw i32 %14, 1
  %30 = icmp slt i32 %27, %7
  br i1 %30, label %13, label %31, !llvm.loop !11

31:                                               ; preds = %26, %0
  %32 = phi i32 [ 1, %0 ], [ %28, %26 ]
  %33 = call i32 (i8*, ...) @printf(i8* nonnull dereferenceable(1) getelementptr inbounds ([3 x i8], [3 x i8]* @.str.2, i64 0, i64 0), i32 %32)
  call void @llvm.lifetime.end.p0i8(i64 4, i8* nonnull %4) #4
  call void @llvm.lifetime.end.p0i8(i64 4, i8* nonnull %3) #4
  ret void
}

; Function Attrs: argmemonly mustprogress nofree nosync nounwind willreturn
declare void @llvm.lifetime.start.p0i8(i64 immarg, i8* nocapture) #1

; Function Attrs: nofree nounwind
declare noundef i32 @__isoc99_scanf(i8* nocapture noundef readonly, ...) local_unnamed_addr #2

; Function Attrs: nofree nounwind
declare noundef i32 @printf(i8* nocapture noundef readonly, ...) local_unnamed_addr #2

; Function Attrs: argmemonly mustprogress nofree nosync nounwind willreturn
declare void @llvm.lifetime.end.p0i8(i64 immarg, i8* nocapture) #1

; Function Attrs: nofree nounwind
declare noundef i32 @putchar(i32 noundef) local_unnamed_addr #3


!llvm.module.flags = !{!0, !1, !2, !3}
!llvm.ident = !{!4}

!0 = !{i32 1, !"wchar_size", i32 4}
!1 = !{i32 7, !"PIC Level", i32 2}
!2 = !{i32 7, !"PIE Level", i32 2}
!3 = !{i32 7, !"uwtable", i32 1}
!4 = !{!"clang version 13.0.0"}
!5 = !{!6, !6, i64 0}
!6 = !{!"int", !7, i64 0}
!7 = !{!"omnipotent char", !8, i64 0}
!8 = !{!"Simple C/C++ TBAA"}
!9 = distinct !{!9, !10}
!10 = !{!"llvm.loop.mustprogress"}
!11 = distinct !{!11, !10}
